target datalayout = "e-m:e-p270:32:32-p271:32:32-p272:64:64-i64:64-i128:128-f80:128-n8:16:32:64-S128"
target triple = "x86_64-pc-linux-gnu"

%struct.blake2sp_state = type { [8 x %struct.blake2s_state], %struct.blake2s_state, [512 x i8], i64 }
%struct.blake2s_state = type <{ [240 x i8], ptr, ptr, ptr, ptr, i64, i8, [7 x i8] }>
%struct.Blake2ThreadData = type { ptr, ptr, i64 }

; Function Attrs: inlinehint mustprogress nounwind uwtable
define internal void @_ZL25blake2s_increment_counterP13blake2s_statej(ptr noundef %0, i32 noundef %1) #5 {
  %3 = alloca ptr, align 8
  %4 = alloca i32, align 4
  store ptr %0, ptr %3, align 8, !tbaa !20
  store i32 %1, ptr %4, align 4, !tbaa !14
  %5 = load i32, ptr %4, align 4, !tbaa !14
  %6 = load ptr, ptr %3, align 8, !tbaa !20
  %7 = getelementptr inbounds nuw %struct.blake2s_state, ptr %6, i32 0, i32 3
  %8 = load ptr, ptr %7, align 8, !tbaa !42
  %9 = getelementptr inbounds i32, ptr %8, i64 0
  %10 = load i32, ptr %9, align 4, !tbaa !14
  %11 = add i32 %10, %5
  store i32 %11, ptr %9, align 4, !tbaa !14
  %12 = load ptr, ptr %3, align 8, !tbaa !20
  %13 = getelementptr inbounds nuw %struct.blake2s_state, ptr %12, i32 0, i32 3
  %14 = load ptr, ptr %13, align 8, !tbaa !42
  %15 = getelementptr inbounds i32, ptr %14, i64 0
  %16 = load i32, ptr %15, align 4, !tbaa !14
  %17 = load i32, ptr %4, align 4, !tbaa !14
  %18 = icmp ult i32 %16, %17
  %19 = zext i1 %18 to i32
  %20 = load ptr, ptr %3, align 8, !tbaa !20
  %21 = getelementptr inbounds nuw %struct.blake2s_state, ptr %20, i32 0, i32 3
  %22 = load ptr, ptr %21, align 8, !tbaa !42
  %23 = getelementptr inbounds i32, ptr %22, i64 1
  %24 = load i32, ptr %23, align 4, !tbaa !14
  %25 = add i32 %24, %19
  store i32 %25, ptr %23, align 4, !tbaa !14
  ret void
}

; Function Attrs: mustprogress uwtable
define void @_ZN16Blake2ThreadData6UpdateEv(ptr noundef nonnull align 8 dereferenceable(24) %0) #0 align 2 {
  %2 = alloca ptr, align 8
  %3 = alloca i64, align 8
  %4 = alloca ptr, align 8
  store ptr %0, ptr %2, align 8, !tbaa !24
  %5 = load ptr, ptr %2, align 8
  call void @llvm.lifetime.start.p0(i64 8, ptr %3) #7
  %6 = getelementptr inbounds nuw %struct.Blake2ThreadData, ptr %5, i32 0, i32 2
  %7 = load i64, ptr %6, align 8, !tbaa !26
  store i64 %7, ptr %3, align 8, !tbaa !28
  call void @llvm.lifetime.start.p0(i64 8, ptr %4) #7
  %8 = getelementptr inbounds nuw %struct.Blake2ThreadData, ptr %5, i32 0, i32 1
  %9 = load ptr, ptr %8, align 8, !tbaa !29
  store ptr %9, ptr %4, align 8, !tbaa !30
  br label %10

10:                                               ; preds = %13, %1
  %11 = load i64, ptr %3, align 8, !tbaa !28
  %12 = icmp uge i64 %11, 512
  br i1 %12, label %13, label %21

13:                                               ; preds = %10
  %14 = getelementptr inbounds nuw %struct.Blake2ThreadData, ptr %5, i32 0, i32 0
  %15 = load ptr, ptr %14, align 8, !tbaa !31
  %16 = load ptr, ptr %4, align 8, !tbaa !30
  call void @_ZL14blake2s_updateP13blake2s_statePKhm(ptr noundef %15, ptr noundef %16, i64 noundef 64)
  %17 = load ptr, ptr %4, align 8, !tbaa !30
  %18 = getelementptr inbounds i8, ptr %17, i64 512
  store ptr %18, ptr %4, align 8, !tbaa !30
  %19 = load i64, ptr %3, align 8, !tbaa !28
  %20 = sub i64 %19, 512
  store i64 %20, ptr %3, align 8, !tbaa !28
  br label %10, !llvm.loop !32

21:                                               ; preds = %10
  call void @llvm.lifetime.end.p0(i64 8, ptr %4) #7
  call void @llvm.lifetime.end.p0(i64 8, ptr %3) #7
  ret void
}

; Function Attrs: mustprogress uwtable
define internal void @_ZL14blake2s_updateP13blake2s_statePKhm(ptr noundef %0, ptr noundef %1, i64 noundef %2) #0 {
  %4 = alloca ptr, align 8
  %5 = alloca ptr, align 8
  %6 = alloca i64, align 8
  %7 = alloca i64, align 8
  %8 = alloca i64, align 8
  store ptr %0, ptr %4, align 8, !tbaa !20
  store ptr %1, ptr %5, align 8, !tbaa !30
  store i64 %2, ptr %6, align 8, !tbaa !28
  br label %9

9:                                                ; preds = %72, %3
  %10 = load i64, ptr %6, align 8, !tbaa !28
  %11 = icmp ugt i64 %10, 0
  br i1 %11, label %12, label %73

12:                                               ; preds = %9
  call void @llvm.lifetime.start.p0(i64 8, ptr %7) #7
  %13 = load ptr, ptr %4, align 8, !tbaa !20
  %14 = getelementptr inbounds nuw %struct.blake2s_state, ptr %13, i32 0, i32 5
  %15 = load i64, ptr %14, align 8, !tbaa !33
  store i64 %15, ptr %7, align 8, !tbaa !28
  call void @llvm.lifetime.start.p0(i64 8, ptr %8) #7
  %16 = load i64, ptr %7, align 8, !tbaa !28
  %17 = sub i64 128, %16
  store i64 %17, ptr %8, align 8, !tbaa !28
  %18 = load i64, ptr %6, align 8, !tbaa !28
  %19 = load i64, ptr %8, align 8, !tbaa !28
  %20 = icmp ugt i64 %18, %19
  br i1 %20, label %21, label %56

21:                                               ; preds = %12
  %22 = load ptr, ptr %4, align 8, !tbaa !20
  %23 = getelementptr inbounds nuw %struct.blake2s_state, ptr %22, i32 0, i32 1
  %24 = load ptr, ptr %23, align 8, !tbaa !34
  %25 = load i64, ptr %7, align 8, !tbaa !28
  %26 = getelementptr inbounds nuw i8, ptr %24, i64 %25
  %27 = load ptr, ptr %5, align 8, !tbaa !30
  %28 = load i64, ptr %8, align 8, !tbaa !28
  call void @llvm.memcpy.p0.p0.i64(ptr align 1 %26, ptr align 1 %27, i64 %28, i1 false)
  %29 = load i64, ptr %8, align 8, !tbaa !28
  %30 = load ptr, ptr %4, align 8, !tbaa !20
  %31 = getelementptr inbounds nuw %struct.blake2s_state, ptr %30, i32 0, i32 5
  %32 = load i64, ptr %31, align 8, !tbaa !33
  %33 = add i64 %32, %29
  store i64 %33, ptr %31, align 8, !tbaa !33
  %34 = load ptr, ptr %4, align 8, !tbaa !20
  call void @_ZL25blake2s_increment_counterP13blake2s_statej(ptr noundef %34, i32 noundef 64)
  %35 = load ptr, ptr %4, align 8, !tbaa !20
  %36 = load ptr, ptr %4, align 8, !tbaa !20
  %37 = getelementptr inbounds nuw %struct.blake2s_state, ptr %36, i32 0, i32 1
  %38 = load ptr, ptr %37, align 8, !tbaa !34
  call void @_ZL16blake2s_compressP13blake2s_statePKh(ptr noundef %35, ptr noundef %38)
  %39 = load ptr, ptr %4, align 8, !tbaa !20
  %40 = getelementptr inbounds nuw %struct.blake2s_state, ptr %39, i32 0, i32 1
  %41 = load ptr, ptr %40, align 8, !tbaa !34
  %42 = load ptr, ptr %4, align 8, !tbaa !20
  %43 = getelementptr inbounds nuw %struct.blake2s_state, ptr %42, i32 0, i32 1
  %44 = load ptr, ptr %43, align 8, !tbaa !34
  %45 = getelementptr inbounds i8, ptr %44, i64 64
  call void @llvm.memcpy.p0.p0.i64(ptr align 1 %41, ptr align 1 %45, i64 64, i1 false)
  %46 = load ptr, ptr %4, align 8, !tbaa !20
  %47 = getelementptr inbounds nuw %struct.blake2s_state, ptr %46, i32 0, i32 5
  %48 = load i64, ptr %47, align 8, !tbaa !33
  %49 = sub i64 %48, 64
  store i64 %49, ptr %47, align 8, !tbaa !33
  %50 = load i64, ptr %8, align 8, !tbaa !28
  %51 = load ptr, ptr %5, align 8, !tbaa !30
  %52 = getelementptr inbounds nuw i8, ptr %51, i64 %50
  store ptr %52, ptr %5, align 8, !tbaa !30
  %53 = load i64, ptr %8, align 8, !tbaa !28
  %54 = load i64, ptr %6, align 8, !tbaa !28
  %55 = sub i64 %54, %53
  store i64 %55, ptr %6, align 8, !tbaa !28
  br label %72

56:                                               ; preds = %12
  %57 = load ptr, ptr %4, align 8, !tbaa !20
  %58 = getelementptr inbounds nuw %struct.blake2s_state, ptr %57, i32 0, i32 1
  %59 = load ptr, ptr %58, align 8, !tbaa !34
  %60 = load i64, ptr %7, align 8, !tbaa !28
  %61 = getelementptr inbounds nuw i8, ptr %59, i64 %60
  %62 = load ptr, ptr %5, align 8, !tbaa !30
  %63 = load i64, ptr %6, align 8, !tbaa !28
  call void @llvm.memcpy.p0.p0.i64(ptr align 1 %61, ptr align 1 %62, i64 %63, i1 false)
  %64 = load i64, ptr %6, align 8, !tbaa !28
  %65 = load ptr, ptr %4, align 8, !tbaa !20
  %66 = getelementptr inbounds nuw %struct.blake2s_state, ptr %65, i32 0, i32 5
  %67 = load i64, ptr %66, align 8, !tbaa !33
  %68 = add i64 %67, %64
  store i64 %68, ptr %66, align 8, !tbaa !33
  %69 = load i64, ptr %6, align 8, !tbaa !28
  %70 = load ptr, ptr %5, align 8, !tbaa !30
  %71 = getelementptr inbounds nuw i8, ptr %70, i64 %69
  store ptr %71, ptr %5, align 8, !tbaa !30
  store i64 0, ptr %6, align 8, !tbaa !28
  br label %72

72:                                               ; preds = %56, %21
  call void @llvm.lifetime.end.p0(i64 8, ptr %8) #7
  call void @llvm.lifetime.end.p0(i64 8, ptr %7) #7
  br label %9, !llvm.loop !35

73:                                               ; preds = %9
  ret void
}

; Function Attrs: mustprogress uwtable
define void @_Z15blake2sp_updateP14blake2sp_statePKhm(ptr noundef %0, ptr noundef %1, i64 noundef %2) #0 {
  %4 = alloca ptr, align 8
  %5 = alloca ptr, align 8
  %6 = alloca i64, align 8
  %7 = alloca i64, align 8
  %8 = alloca i64, align 8
  %9 = alloca i64, align 8
  %10 = alloca [8 x %struct.Blake2ThreadData], align 16
  %11 = alloca i32, align 4
  %12 = alloca i64, align 8
  %13 = alloca i32, align 4
  %14 = alloca i32, align 4
  %15 = alloca ptr, align 8
  store ptr %0, ptr %4, align 8, !tbaa !3
  store ptr %1, ptr %5, align 8, !tbaa !30
  store i64 %2, ptr %6, align 8, !tbaa !28
  call void @llvm.lifetime.start.p0(i64 8, ptr %7) #7
  %16 = load ptr, ptr %4, align 8, !tbaa !3
  %17 = getelementptr inbounds nuw %struct.blake2sp_state, ptr %16, i32 0, i32 3
  %18 = load i64, ptr %17, align 8, !tbaa !8
  store i64 %18, ptr %7, align 8, !tbaa !28
  call void @llvm.lifetime.start.p0(i64 8, ptr %8) #7
  %19 = load i64, ptr %7, align 8, !tbaa !28
  %20 = sub i64 512, %19
  store i64 %20, ptr %8, align 8, !tbaa !28
  %21 = load i64, ptr %7, align 8, !tbaa !28
  %22 = icmp ne i64 %21, 0
  br i1 %22, label %23, label %60

23:                                               ; preds = %3
  %24 = load i64, ptr %6, align 8, !tbaa !28
  %25 = load i64, ptr %8, align 8, !tbaa !28
  %26 = icmp uge i64 %24, %25
  br i1 %26, label %27, label %60

27:                                               ; preds = %23
  %28 = load ptr, ptr %4, align 8, !tbaa !3
  %29 = getelementptr inbounds nuw %struct.blake2sp_state, ptr %28, i32 0, i32 2
  %30 = getelementptr inbounds [512 x i8], ptr %29, i64 0, i64 0
  %31 = load i64, ptr %7, align 8, !tbaa !28
  %32 = getelementptr inbounds nuw i8, ptr %30, i64 %31
  %33 = load ptr, ptr %5, align 8, !tbaa !30
  %34 = load i64, ptr %8, align 8, !tbaa !28
  call void @llvm.memcpy.p0.p0.i64(ptr align 1 %32, ptr align 1 %33, i64 %34, i1 false)
  call void @llvm.lifetime.start.p0(i64 8, ptr %9) #7
  store i64 0, ptr %9, align 8, !tbaa !28
  br label %35

35:                                               ; preds = %50, %27
  %36 = load i64, ptr %9, align 8, !tbaa !28
  %37 = icmp ult i64 %36, 8
  br i1 %37, label %39, label %38

38:                                               ; preds = %35
  call void @llvm.lifetime.end.p0(i64 8, ptr %9) #7
  br label %53

39:                                               ; preds = %35
  %40 = load ptr, ptr %4, align 8, !tbaa !3
  %41 = getelementptr inbounds nuw %struct.blake2sp_state, ptr %40, i32 0, i32 0
  %42 = load i64, ptr %9, align 8, !tbaa !28
  %43 = getelementptr inbounds nuw [8 x %struct.blake2s_state], ptr %41, i64 0, i64 %42
  %44 = load ptr, ptr %4, align 8, !tbaa !3
  %45 = getelementptr inbounds nuw %struct.blake2sp_state, ptr %44, i32 0, i32 2
  %46 = getelementptr inbounds [512 x i8], ptr %45, i64 0, i64 0
  %47 = load i64, ptr %9, align 8, !tbaa !28
  %48 = mul i64 %47, 64
  %49 = getelementptr inbounds nuw i8, ptr %46, i64 %48
  call void @_ZL14blake2s_updateP13blake2s_statePKhm(ptr noundef %43, ptr noundef %49, i64 noundef 64)
  br label %50

50:                                               ; preds = %39
  %51 = load i64, ptr %9, align 8, !tbaa !28
  %52 = add i64 %51, 1
  store i64 %52, ptr %9, align 8, !tbaa !28
  br label %35, !llvm.loop !36

53:                                               ; preds = %38
  %54 = load i64, ptr %8, align 8, !tbaa !28
  %55 = load ptr, ptr %5, align 8, !tbaa !30
  %56 = getelementptr inbounds nuw i8, ptr %55, i64 %54
  store ptr %56, ptr %5, align 8, !tbaa !30
  %57 = load i64, ptr %8, align 8, !tbaa !28
  %58 = load i64, ptr %6, align 8, !tbaa !28
  %59 = sub i64 %58, %57
  store i64 %59, ptr %6, align 8, !tbaa !28
  store i64 0, ptr %7, align 8, !tbaa !28
  br label %60

60:                                               ; preds = %53, %23, %3
  call void @llvm.lifetime.start.p0(i64 192, ptr %10) #7
  call void @llvm.lifetime.start.p0(i64 4, ptr %11) #7
  store i32 1, ptr %11, align 4, !tbaa !14
  call void @llvm.lifetime.start.p0(i64 8, ptr %12) #7
  store i64 0, ptr %12, align 8, !tbaa !28
  br label %61

61:                                               ; preds = %102, %60
  %62 = load i64, ptr %12, align 8, !tbaa !28
  %63 = icmp ult i64 %62, 8
  br i1 %63, label %65, label %64

64:                                               ; preds = %61
  store i32 5, ptr %13, align 4
  call void @llvm.lifetime.end.p0(i64 8, ptr %12) #7
  br label %103

65:                                               ; preds = %61
  call void @llvm.lifetime.start.p0(i64 4, ptr %14) #7
  store i32 0, ptr %14, align 4, !tbaa !14
  br label %66

66:                                               ; preds = %99, %65
  %67 = load i32, ptr %14, align 4, !tbaa !14
  %68 = load i32, ptr %11, align 4, !tbaa !14
  %69 = icmp ult i32 %67, %68
  br i1 %69, label %70, label %73

70:                                               ; preds = %66
  %71 = load i64, ptr %12, align 8, !tbaa !28
  %72 = icmp ult i64 %71, 8
  br label %73

73:                                               ; preds = %70, %66
  %74 = phi i1 [ false, %66 ], [ %72, %70 ]
  br i1 %74, label %76, label %75

75:                                               ; preds = %73
  store i32 7, ptr %13, align 4
  call void @llvm.lifetime.end.p0(i64 4, ptr %14) #7
  br label %102

76:                                               ; preds = %73
  call void @llvm.lifetime.start.p0(i64 8, ptr %15) #7
  %77 = getelementptr inbounds [8 x %struct.Blake2ThreadData], ptr %10, i64 0, i64 0
  %78 = load i32, ptr %14, align 4, !tbaa !14
  %79 = zext i32 %78 to i64
  %80 = getelementptr inbounds nuw %struct.Blake2ThreadData, ptr %77, i64 %79
  store ptr %80, ptr %15, align 8, !tbaa !24
  %81 = load i64, ptr %6, align 8, !tbaa !28
  %82 = load ptr, ptr %15, align 8, !tbaa !24
  %83 = getelementptr inbounds nuw %struct.Blake2ThreadData, ptr %82, i32 0, i32 2
  store i64 %81, ptr %83, align 8, !tbaa !26
  %84 = load ptr, ptr %5, align 8, !tbaa !30
  %85 = load i64, ptr %12, align 8, !tbaa !28
  %86 = mul i64 %85, 64
  %87 = getelementptr inbounds nuw i8, ptr %84, i64 %86
  %88 = load ptr, ptr %15, align 8, !tbaa !24
  %89 = getelementptr inbounds nuw %struct.Blake2ThreadData, ptr %88, i32 0, i32 1
  store ptr %87, ptr %89, align 8, !tbaa !29
  %90 = load ptr, ptr %4, align 8, !tbaa !3
  %91 = getelementptr inbounds nuw %struct.blake2sp_state, ptr %90, i32 0, i32 0
  %92 = load i64, ptr %12, align 8, !tbaa !28
  %93 = getelementptr inbounds nuw [8 x %struct.blake2s_state], ptr %91, i64 0, i64 %92
  %94 = load ptr, ptr %15, align 8, !tbaa !24
  %95 = getelementptr inbounds nuw %struct.Blake2ThreadData, ptr %94, i32 0, i32 0
  store ptr %93, ptr %95, align 8, !tbaa !31
  %96 = load ptr, ptr %15, align 8, !tbaa !24
  call void @_ZN16Blake2ThreadData6UpdateEv(ptr noundef nonnull align 8 dereferenceable(24) %96)
  %97 = load i64, ptr %12, align 8, !tbaa !28
  %98 = add i64 %97, 1
  store i64 %98, ptr %12, align 8, !tbaa !28
  call void @llvm.lifetime.end.p0(i64 8, ptr %15) #7
  br label %99

99:                                               ; preds = %76
  %100 = load i32, ptr %14, align 4, !tbaa !14
  %101 = add i32 %100, 1
  store i32 %101, ptr %14, align 4, !tbaa !14
  br label %66, !llvm.loop !37

102:                                              ; preds = %75
  br label %61, !llvm.loop !38

103:                                              ; preds = %64
  %104 = load i64, ptr %6, align 8, !tbaa !28
  %105 = load i64, ptr %6, align 8, !tbaa !28
  %106 = urem i64 %105, 512
  %107 = sub i64 %104, %106
  %108 = load ptr, ptr %5, align 8, !tbaa !30
  %109 = getelementptr inbounds nuw i8, ptr %108, i64 %107
  store ptr %109, ptr %5, align 8, !tbaa !30
  %110 = load i64, ptr %6, align 8, !tbaa !28
  %111 = urem i64 %110, 512
  store i64 %111, ptr %6, align 8, !tbaa !28
  %112 = load i64, ptr %6, align 8, !tbaa !28
  %113 = icmp ugt i64 %112, 0
  br i1 %113, label %114, label %122

114:                                              ; preds = %103
  %115 = load ptr, ptr %4, align 8, !tbaa !3
  %116 = getelementptr inbounds nuw %struct.blake2sp_state, ptr %115, i32 0, i32 2
  %117 = getelementptr inbounds [512 x i8], ptr %116, i64 0, i64 0
  %118 = load i64, ptr %7, align 8, !tbaa !28
  %119 = getelementptr inbounds nuw i8, ptr %117, i64 %118
  %120 = load ptr, ptr %5, align 8, !tbaa !30
  %121 = load i64, ptr %6, align 8, !tbaa !28
  call void @llvm.memcpy.p0.p0.i64(ptr align 1 %119, ptr align 1 %120, i64 %121, i1 false)
  br label %122

122:                                              ; preds = %114, %103
  %123 = load i64, ptr %7, align 8, !tbaa !28
  %124 = load i64, ptr %6, align 8, !tbaa !28
  %125 = add i64 %123, %124
  %126 = load ptr, ptr %4, align 8, !tbaa !3
  %127 = getelementptr inbounds nuw %struct.blake2sp_state, ptr %126, i32 0, i32 3
  store i64 %125, ptr %127, align 8, !tbaa !8
  call void @llvm.lifetime.end.p0(i64 4, ptr %11) #7
  call void @llvm.lifetime.end.p0(i64 192, ptr %10) #7
  call void @llvm.lifetime.end.p0(i64 8, ptr %8) #7
  call void @llvm.lifetime.end.p0(i64 8, ptr %7) #7
  ret void
}