; Function Attrs: mustprogress nofree norecurse nosync nounwind memory(readwrite, inaccessiblemem: none) uwtable
define void @_Z15blake2sp_updateP14blake2sp_statePKhm(ptr noundef captures(none) %0, ptr noundef readonly captures(none) %1, i64 noundef %2) local_unnamed_addr #0 {
  %4 = getelementptr inbounds nuw i8, ptr %0, i64 3104
  %5 = load i64, ptr %4, align 8, !tbaa !27
  %6 = sub i64 512, %5
  %.not = icmp eq i64 %5, 0
  br i1 %.not, label %48, label %7

7:                                                ; preds = %3
  %.not57 = icmp ult i64 %2, %6
  br i1 %.not57, label %48, label %8

8:                                                ; preds = %7
  %9 = getelementptr inbounds nuw i8, ptr %0, i64 2592
  %10 = getelementptr inbounds nuw i8, ptr %9, i64 %5
  tail call void @llvm.memcpy.p0.p0.i64(ptr nonnull align 1 %10, ptr align 1 %1, i64 %6, i1 false)
  br label %.split

11:                                               ; preds = %.thread.i
  %12 = getelementptr inbounds nuw i8, ptr %1, i64 %6
  %13 = sub i64 %2, %6
  br label %48

.split:                                           ; preds = %8, %.thread.i
  %.04968 = phi i64 [ 0, %8 ], [ %26, %.thread.i ]
  %14 = getelementptr inbounds nuw [8 x %struct.blake2s_state], ptr %0, i64 0, i64 %.04968
  %15 = shl nuw nsw i64 %.04968, 6
  %16 = getelementptr inbounds nuw i8, ptr %9, i64 %15
  %17 = getelementptr inbounds nuw i8, ptr %14, i64 272
  %18 = getelementptr inbounds nuw i8, ptr %14, i64 240
  %19 = getelementptr i8, ptr %14, i64 256
  %.pre.i = load i64, ptr %17, align 8, !tbaa !3
  %20 = sub i64 128, %.pre.i
  %21 = icmp ult i64 %20, 64
  br i1 %21, label %.lr.ph, label %.thread.i

.thread.i:                                        ; preds = %.lr.ph, %.split
  %.lcssa62 = phi i64 [ %.pre.i, %.split ], [ %44, %.lr.ph ]
  %.033.i.lcssa = phi ptr [ %16, %.split ], [ %.1.i, %.lr.ph ]
  %.02832.i.lcssa = phi i64 [ 64, %.split ], [ %45, %.lr.ph ]
  %22 = load ptr, ptr %18, align 8, !tbaa !24
  %23 = getelementptr inbounds nuw i8, ptr %22, i64 %.lcssa62
  tail call void @llvm.memcpy.p0.p0.i64(ptr noundef nonnull align 1 dereferenceable(1) %23, ptr noundef nonnull align 1 dereferenceable(1) %.033.i.lcssa, i64 %.02832.i.lcssa, i1 false)
  %24 = load i64, ptr %17, align 8, !tbaa !3
  %25 = add i64 %24, %.02832.i.lcssa
  store i64 %25, ptr %17, align 8, !tbaa !3
  %26 = add nuw nsw i64 %.04968, 1
  %exitcond.not = icmp eq i64 %26, 8
  br i1 %exitcond.not, label %11, label %.split, !llvm.loop !28

.lr.ph:                                           ; preds = %.split, %.lr.ph
  %27 = phi i64 [ %46, %.lr.ph ], [ %20, %.split ]
  %.02832.i65 = phi i64 [ %45, %.lr.ph ], [ 64, %.split ]
  %.033.i64 = phi ptr [ %.1.i, %.lr.ph ], [ %16, %.split ]
  %28 = phi i64 [ %44, %.lr.ph ], [ %.pre.i, %.split ]
  %29 = load ptr, ptr %18, align 8, !tbaa !24
  %30 = getelementptr inbounds nuw i8, ptr %29, i64 %28
  tail call void @llvm.memcpy.p0.p0.i64(ptr align 1 %30, ptr align 1 %.033.i64, i64 %27, i1 false)
  %31 = load i64, ptr %17, align 8, !tbaa !3
  %32 = add i64 %31, %27
  store i64 %32, ptr %17, align 8, !tbaa !3
  %.val.i = load ptr, ptr %19, align 8, !tbaa !26
  %33 = load i32, ptr %.val.i, align 4, !tbaa !12
  %34 = add i32 %33, 64
  store i32 %34, ptr %.val.i, align 4, !tbaa !12
  %35 = icmp ugt i32 %33, -65
  %36 = zext i1 %35 to i32
  %37 = getelementptr inbounds nuw i8, ptr %.val.i, i64 4
  %38 = load i32, ptr %37, align 4, !tbaa !12
  %39 = add i32 %38, %36
  store i32 %39, ptr %37, align 4, !tbaa !12
  %40 = load ptr, ptr %18, align 8, !tbaa !24
  tail call fastcc void @_ZL16blake2s_compressP13blake2s_statePKh(ptr noundef nonnull %14, ptr noundef %40)
  %41 = load ptr, ptr %18, align 8, !tbaa !24
  %42 = getelementptr inbounds nuw i8, ptr %41, i64 64
  tail call void @llvm.memcpy.p0.p0.i64(ptr noundef nonnull align 1 dereferenceable(64) %41, ptr noundef nonnull align 1 dereferenceable(64) %42, i64 64, i1 false)
  %43 = load i64, ptr %17, align 8, !tbaa !3
  %44 = add i64 %43, -64
  %45 = sub nuw i64 %.02832.i65, %27
  store i64 %44, ptr %17, align 8, !tbaa !3
  %.1.i = getelementptr inbounds nuw i8, ptr %.033.i64, i64 %27
  %46 = sub i64 192, %43
  %47 = icmp ugt i64 %45, %46
  br i1 %47, label %.lr.ph, label %.thread.i

48:                                               ; preds = %11, %7, %3
  %.050 = phi i64 [ 0, %11 ], [ %5, %7 ], [ 0, %3 ]
  %.048 = phi i64 [ %13, %11 ], [ %2, %7 ], [ %2, %3 ]
  %.0 = phi ptr [ %12, %11 ], [ %1, %7 ], [ %1, %3 ]
  %49 = icmp ugt i64 %.048, 511
  br i1 %49, label %.preheader.us, label %.split73.us

.preheader.us:                                    ; preds = %48, %_ZN16Blake2ThreadData6UpdateEv.exit.loopexit.us.us
  %.04770.us = phi i64 [ %86, %_ZN16Blake2ThreadData6UpdateEv.exit.loopexit.us.us ], [ 0, %48 ]
  %50 = shl nuw nsw i64 %.04770.us, 6
  %51 = getelementptr inbounds nuw i8, ptr %.0, i64 %50
  %52 = getelementptr inbounds nuw [8 x %struct.blake2s_state], ptr %0, i64 0, i64 %.04770.us
  %53 = getelementptr inbounds nuw i8, ptr %52, i64 272
  %54 = getelementptr inbounds nuw i8, ptr %52, i64 240
  %55 = getelementptr i8, ptr %52, i64 256
  %.pre.i.i.us.us.pre = load i64, ptr %53, align 8, !tbaa !3
  br label %.split.i.us.us

.split.i.us.us:                                   ; preds = %.thread.i.i.us.us, %.preheader.us
  %.pre.i.i.us.us = phi i64 [ %82, %.thread.i.i.us.us ], [ %.pre.i.i.us.us.pre, %.preheader.us ]
  %.013.i.us.us = phi ptr [ %83, %.thread.i.i.us.us ], [ %51, %.preheader.us ]
  %.0412.i.us.us = phi i64 [ %84, %.thread.i.i.us.us ], [ %.048, %.preheader.us ]
  %56 = sub i64 128, %.pre.i.i.us.us
  %57 = icmp ult i64 %56, 64
  br i1 %57, label %.lr.ph.i.us.us, label %.thread.i.i.us.us

.lr.ph.i.us.us:                                   ; preds = %.split.i.us.us, %.lr.ph.i.us.us
  %58 = phi i64 [ %77, %.lr.ph.i.us.us ], [ %56, %.split.i.us.us ]
  %.02832.i9.i.us.us = phi i64 [ %76, %.lr.ph.i.us.us ], [ 64, %.split.i.us.us ]
  %.033.i8.i.us.us = phi ptr [ %.1.i.i.us.us, %.lr.ph.i.us.us ], [ %.013.i.us.us, %.split.i.us.us ]
  %59 = phi i64 [ %75, %.lr.ph.i.us.us ], [ %.pre.i.i.us.us, %.split.i.us.us ]
  %60 = load ptr, ptr %54, align 8, !tbaa !24
  %61 = getelementptr inbounds nuw i8, ptr %60, i64 %59
  tail call void @llvm.memcpy.p0.p0.i64(ptr align 1 %61, ptr align 1 %.033.i8.i.us.us, i64 %58, i1 false)
  %62 = load i64, ptr %53, align 8, !tbaa !3
  %63 = add i64 %62, %58
  store i64 %63, ptr %53, align 8, !tbaa !3
  %.val.i.i.us.us = load ptr, ptr %55, align 8, !tbaa !26
  %64 = load i32, ptr %.val.i.i.us.us, align 4, !tbaa !12
  %65 = add i32 %64, 64
  store i32 %65, ptr %.val.i.i.us.us, align 4, !tbaa !12
  %66 = icmp ugt i32 %64, -65
  %67 = zext i1 %66 to i32
  %68 = getelementptr inbounds nuw i8, ptr %.val.i.i.us.us, i64 4
  %69 = load i32, ptr %68, align 4, !tbaa !12
  %70 = add i32 %69, %67
  store i32 %70, ptr %68, align 4, !tbaa !12
  %71 = load ptr, ptr %54, align 8, !tbaa !24
  tail call fastcc void @_ZL16blake2s_compressP13blake2s_statePKh(ptr noundef nonnull %52, ptr noundef %71)
  %72 = load ptr, ptr %54, align 8, !tbaa !24
  %73 = getelementptr inbounds nuw i8, ptr %72, i64 64
  tail call void @llvm.memcpy.p0.p0.i64(ptr noundef nonnull align 1 dereferenceable(64) %72, ptr noundef nonnull align 1 dereferenceable(64) %73, i64 64, i1 false)
  %74 = load i64, ptr %53, align 8, !tbaa !3
  %75 = add i64 %74, -64
  %76 = sub nuw i64 %.02832.i9.i.us.us, %58
  store i64 %75, ptr %53, align 8, !tbaa !3
  %.1.i.i.us.us = getelementptr inbounds nuw i8, ptr %.033.i8.i.us.us, i64 %58
  %77 = sub i64 192, %74
  %78 = icmp ugt i64 %76, %77
  br i1 %78, label %.lr.ph.i.us.us, label %.thread.i.i.us.us

.thread.i.i.us.us:                                ; preds = %.lr.ph.i.us.us, %.split.i.us.us
  %.lcssa.i.us.us = phi i64 [ %.pre.i.i.us.us, %.split.i.us.us ], [ %75, %.lr.ph.i.us.us ]
  %.033.i.lcssa.i.us.us = phi ptr [ %.013.i.us.us, %.split.i.us.us ], [ %.1.i.i.us.us, %.lr.ph.i.us.us ]
  %.02832.i.lcssa.i.us.us = phi i64 [ 64, %.split.i.us.us ], [ %76, %.lr.ph.i.us.us ]
  %79 = load ptr, ptr %54, align 8, !tbaa !24
  %80 = getelementptr inbounds nuw i8, ptr %79, i64 %.lcssa.i.us.us
  tail call void @llvm.memcpy.p0.p0.i64(ptr noundef nonnull align 1 dereferenceable(1) %80, ptr noundef nonnull align 1 dereferenceable(1) %.033.i.lcssa.i.us.us, i64 %.02832.i.lcssa.i.us.us, i1 false)
  %81 = load i64, ptr %53, align 8, !tbaa !3
  %82 = add i64 %81, %.02832.i.lcssa.i.us.us
  store i64 %82, ptr %53, align 8, !tbaa !3
  %83 = getelementptr inbounds nuw i8, ptr %.013.i.us.us, i64 512
  %84 = add i64 %.0412.i.us.us, -512
  %85 = icmp ugt i64 %84, 511
  br i1 %85, label %.split.i.us.us, label %_ZN16Blake2ThreadData6UpdateEv.exit.loopexit.us.us, !llvm.loop !25

_ZN16Blake2ThreadData6UpdateEv.exit.loopexit.us.us: ; preds = %.thread.i.i.us.us
  %86 = add nuw nsw i64 %.04770.us, 1
  %exitcond78.not = icmp eq i64 %86, 8
  br i1 %exitcond78.not, label %.split73.us, label %.preheader.us, !llvm.loop !29

.split73.us:                                      ; preds = %_ZN16Blake2ThreadData6UpdateEv.exit.loopexit.us.us, %48
  %87 = and i64 %.048, 511
  %.not58 = icmp eq i64 %87, 0
  br i1 %.not58, label %93, label %88

88:                                               ; preds = %.split73.us
  %89 = and i64 %.048, -512
  %90 = getelementptr inbounds nuw i8, ptr %.0, i64 %89
  %91 = getelementptr inbounds nuw i8, ptr %0, i64 2592
  %92 = getelementptr inbounds nuw i8, ptr %91, i64 %.050
  tail call void @llvm.memcpy.p0.p0.i64(ptr nonnull align 1 %92, ptr align 1 %90, i64 %87, i1 false)
  br label %93

93:                                               ; preds = %88, %.split73.us
  %94 = add i64 %87, %.050
  store i64 %94, ptr %4, align 8, !tbaa !27
  ret void
}